target datalayout = "e-m:e-p270:32:32-p271:32:32-p272:64:64-i64:64-i128:128-f80:128-n8:16:32:64-S128"
target triple = "x86_64-pc-linux-gnu"

%struct._header_field_info = type { ptr, ptr, i32, i32, ptr, i64, ptr, i32, i32, i32, i32, ptr }
%struct.nstime_t = type { i64, i32 }
%struct._address = type { i32, i32, ptr, ptr }
%struct._packet_info = type { ptr, ptr, i32, i32, %struct.nstime_t, %struct.nstime_t, %struct.nstime_t, i8, ptr, ptr, ptr, ptr, %struct._address, %struct._address, %struct._address, %struct._address, %struct._address, %struct._address, i32, ptr, i8, [3 x i8], %struct.anon, i32, i32, i32, i32, ptr, i8, ptr, ptr, i16, i16, i32, i32, i16, i32, i32, ptr, ptr, ptr, i8, i8, i16, i16, i16, i32, i16, i16, ptr, ptr, ptr, ptr, ptr, i32, i32 }
%struct.anon = type { i8, [3 x i8] }
%struct._proto_node = type { ptr, ptr, ptr, ptr, ptr, ptr, ptr }

@.str = private unnamed_addr constant [29 x i8] c"%s:%u: failed assertion \22%s\22\00", align 1
@.str.1 = private unnamed_addr constant [30 x i8] c"epan/dissectors/packet-bpv7.c\00", align 1
@.str.5 = private unnamed_addr constant [5 x i8] c": %s\00", align 1
@.str.33 = private unnamed_addr constant [11 x i8] c"BPv7 Admin\00", align 1
@proto_bp_admin = internal global i32 0, align 4
@admin_dissectors = internal global ptr null, align 8
@.str.49 = private unnamed_addr constant [8 x i8] c"Unknown\00", align 1
@.str.50 = private unnamed_addr constant [13 x i8] c"%s: %s (%lu)\00", align 1
@.str.51 = private unnamed_addr constant [11 x i8] c": Type %lu\00", align 1
@hf_admin_record_type = internal global i32 0, align 4
@ett_admin = internal global i32 0, align 4
@.str.347 = private unnamed_addr constant [8 x i8] c"context\00", align 1

; Function Attrs: null_pointer_is_valid sspstrong uwtable
define internal void @label_type_field(ptr noundef %0, ptr noundef %1, ptr noundef %2, ptr noundef %3) #2 {
  %5 = alloca ptr, align 8
  %6 = alloca ptr, align 8
  %7 = alloca ptr, align 8
  %8 = alloca ptr, align 8
  %9 = alloca ptr, align 8
  store ptr %0, ptr %5, align 8
  store ptr %1, ptr %6, align 8
  store ptr %2, ptr %7, align 8
  store ptr %3, ptr %8, align 8
  %10 = load ptr, ptr %7, align 8
  %11 = icmp ne ptr %10, null
  br i1 %11, label %13, label %12

12:                                               ; preds = %4
  br label %43

13:                                               ; preds = %4
  call void @llvm.lifetime.start.p0(i64 8, ptr %9) #18
  %14 = load ptr, ptr %6, align 8
  %15 = call ptr @dissector_handle_get_description(ptr noundef %14)
  store ptr %15, ptr %9, align 8
  %16 = load ptr, ptr %9, align 8
  %17 = icmp ne ptr %16, null
  br i1 %17, label %19, label %18

18:                                               ; preds = %13
  store ptr @.str.49, ptr %9, align 8
  br label %19

19:                                               ; preds = %18, %13
  %20 = load ptr, ptr %7, align 8
  %21 = load ptr, ptr %7, align 8
  %22 = getelementptr inbounds nuw %struct._proto_node, ptr %21, i32 0, i32 4
  %23 = load ptr, ptr %22, align 8
  %24 = getelementptr inbounds nuw %struct._header_field_info, ptr %23, i32 0, i32 0
  %25 = load ptr, ptr %24, align 8
  %26 = load ptr, ptr %9, align 8
  %27 = load ptr, ptr %5, align 8
  %28 = load i64, ptr %27, align 8
  call void (ptr, ptr, ...) @proto_item_set_text(ptr noundef %20, ptr noundef @.str.50, ptr noundef %25, ptr noundef %26, i64 noundef %28)
  %29 = load ptr, ptr %8, align 8
  %30 = icmp ne ptr %29, null
  br i1 %30, label %31, label %42

31:                                               ; preds = %19
  %32 = load ptr, ptr %9, align 8
  %33 = icmp ne ptr %32, null
  br i1 %33, label %34, label %37

34:                                               ; preds = %31
  %35 = load ptr, ptr %8, align 8
  %36 = load ptr, ptr %9, align 8
  call void (ptr, ptr, ...) @proto_item_append_text(ptr noundef %35, ptr noundef @.str.5, ptr noundef %36)
  br label %41

37:                                               ; preds = %31
  %38 = load ptr, ptr %8, align 8
  %39 = load ptr, ptr %5, align 8
  %40 = load i64, ptr %39, align 8
  call void (ptr, ptr, ...) @proto_item_append_text(ptr noundef %38, ptr noundef @.str.51, i64 noundef %40)
  br label %41

41:                                               ; preds = %37, %34
  br label %42

42:                                               ; preds = %41, %19
  call void @llvm.lifetime.end.p0(i64 8, ptr %9) #18
  br label %43

43:                                               ; preds = %42, %12
  ret void
}

; Function Attrs: null_pointer_is_valid sspstrong uwtable
define internal i32 @dissect_payload_admin(ptr noundef %0, ptr noundef %1, ptr noundef %2, ptr noundef %3) #2 {
  %5 = alloca ptr, align 8
  %6 = alloca ptr, align 8
  %7 = alloca ptr, align 8
  %8 = alloca ptr, align 8
  %9 = alloca ptr, align 8
  %10 = alloca ptr, align 8
  %11 = alloca ptr, align 8
  %12 = alloca i32, align 4
  %13 = alloca ptr, align 8
  %14 = alloca ptr, align 8
  %15 = alloca ptr, align 8
  %16 = alloca ptr, align 8
  %17 = alloca ptr, align 8
  %18 = alloca ptr, align 8
  %19 = alloca i8, align 1
  %20 = alloca ptr, align 8
  %21 = alloca i32, align 4
  store ptr %0, ptr %5, align 8
  store ptr %1, ptr %6, align 8
  store ptr %2, ptr %7, align 8
  store ptr %3, ptr %8, align 8
  call void @llvm.lifetime.start.p0(i64 8, ptr %9) #18
  %22 = load ptr, ptr %8, align 8
  store ptr %22, ptr %9, align 8
  %23 = load ptr, ptr %9, align 8
  %24 = icmp ne ptr %23, null
  br i1 %24, label %25, label %26

25:                                               ; preds = %4
  br label %28

26:                                               ; preds = %4
  call void (ptr, ...) @proto_report_dissector_bug(ptr noundef @.str, ptr noundef @.str.1, i32 noundef 1896, ptr noundef @.str.347) #21
  unreachable

27:                                               ; No predecessors!
  br label %28

28:                                               ; preds = %27, %25
  call void @llvm.lifetime.start.p0(i64 8, ptr %10) #18
  %29 = load ptr, ptr %6, align 8
  %30 = getelementptr inbounds nuw %struct._packet_info, ptr %29, i32 0, i32 1
  %31 = load ptr, ptr %30, align 8
  %32 = call ptr @col_get_text(ptr noundef %31, i32 noundef 35)
  store ptr %32, ptr %10, align 8
  %33 = load ptr, ptr %10, align 8
  %34 = call i32 @g_strcmp0(ptr noundef %33, ptr noundef @.str.33)
  %35 = icmp ne i32 %34, 0
  br i1 %35, label %36, label %43

36:                                               ; preds = %28
  %37 = load ptr, ptr %6, align 8
  %38 = getelementptr inbounds nuw %struct._packet_info, ptr %37, i32 0, i32 1
  %39 = load ptr, ptr %38, align 8
  call void @col_set_str(ptr noundef %39, i32 noundef 35, ptr noundef @.str.33)
  %40 = load ptr, ptr %6, align 8
  %41 = getelementptr inbounds nuw %struct._packet_info, ptr %40, i32 0, i32 1
  %42 = load ptr, ptr %41, align 8
  call void @col_clear(ptr noundef %42, i32 noundef 25)
  br label %43

43:                                               ; preds = %36, %28
  call void @llvm.lifetime.end.p0(i64 8, ptr %10) #18
  call void @llvm.lifetime.start.p0(i64 8, ptr %11) #18
  %44 = load ptr, ptr %7, align 8
  %45 = load i32, ptr @proto_bp_admin, align 4
  %46 = load ptr, ptr %5, align 8
  %47 = call ptr @proto_tree_add_item(ptr noundef %44, i32 noundef %45, ptr noundef %46, i32 noundef 0, i32 noundef -1, i32 noundef 0)
  store ptr %47, ptr %11, align 8
  call void @llvm.lifetime.start.p0(i64 4, ptr %12) #18
  store i32 0, ptr %12, align 4
  call void @llvm.lifetime.start.p0(i64 8, ptr %13) #18
  %48 = load ptr, ptr %6, align 8
  %49 = getelementptr inbounds nuw %struct._packet_info, ptr %48, i32 0, i32 51
  %50 = load ptr, ptr %49, align 8
  %51 = load ptr, ptr %5, align 8
  %52 = call ptr @wscbor_chunk_read(ptr noundef %50, ptr noundef %51, ptr noundef %12)
  store ptr %52, ptr %13, align 8
  %53 = load ptr, ptr %13, align 8
  %54 = call zeroext i1 @wscbor_require_array_size(ptr noundef %53, i64 noundef 1, i64 noundef 2)
  %55 = load ptr, ptr %6, align 8
  %56 = load ptr, ptr %11, align 8
  %57 = load ptr, ptr %13, align 8
  %58 = call i64 @wscbor_chunk_mark_errors(ptr noundef %55, ptr noundef %56, ptr noundef %57)
  %59 = load ptr, ptr %6, align 8
  %60 = getelementptr inbounds nuw %struct._packet_info, ptr %59, i32 0, i32 51
  %61 = load ptr, ptr %60, align 8
  %62 = load ptr, ptr %5, align 8
  %63 = load ptr, ptr %13, align 8
  %64 = call zeroext i1 @wscbor_skip_if_errors(ptr noundef %61, ptr noundef %62, ptr noundef %12, ptr noundef %63)
  br i1 %64, label %115, label %65

65:                                               ; preds = %43
  call void @llvm.lifetime.start.p0(i64 8, ptr %14) #18
  %66 = load ptr, ptr %11, align 8
  %67 = load i32, ptr @ett_admin, align 4
  %68 = call ptr @proto_item_add_subtree(ptr noundef %66, i32 noundef %67)
  store ptr %68, ptr %14, align 8
  call void @llvm.lifetime.start.p0(i64 8, ptr %15) #18
  %69 = load ptr, ptr %6, align 8
  %70 = getelementptr inbounds nuw %struct._packet_info, ptr %69, i32 0, i32 51
  %71 = load ptr, ptr %70, align 8
  %72 = load ptr, ptr %5, align 8
  %73 = call ptr @wscbor_chunk_read(ptr noundef %71, ptr noundef %72, ptr noundef %12)
  store ptr %73, ptr %15, align 8
  call void @llvm.lifetime.start.p0(i64 8, ptr %16) #18
  %74 = load ptr, ptr %6, align 8
  %75 = getelementptr inbounds nuw %struct._packet_info, ptr %74, i32 0, i32 51
  %76 = load ptr, ptr %75, align 8
  %77 = load ptr, ptr %15, align 8
  %78 = call ptr @wscbor_require_uint64(ptr noundef %76, ptr noundef %77)
  store ptr %78, ptr %16, align 8
  call void @llvm.lifetime.start.p0(i64 8, ptr %17) #18
  %79 = load ptr, ptr %14, align 8
  %80 = load i32, ptr @hf_admin_record_type, align 4
  %81 = load ptr, ptr %6, align 8
  %82 = load ptr, ptr %5, align 8
  %83 = load ptr, ptr %15, align 8
  %84 = load ptr, ptr %16, align 8
  %85 = call ptr @proto_tree_add_cbor_uint64(ptr noundef %79, i32 noundef %80, ptr noundef %81, ptr noundef %82, ptr noundef %83, ptr noundef %84)
  store ptr %85, ptr %17, align 8
  call void @llvm.lifetime.start.p0(i64 8, ptr %18) #18
  store ptr null, ptr %18, align 8
  call void @llvm.lifetime.start.p0(i64 1, ptr %19) #18
  store i8 0, ptr %19, align 1
  %86 = load ptr, ptr %16, align 8
  %87 = icmp ne ptr %86, null
  br i1 %87, label %88, label %100

88:                                               ; preds = %65
  %89 = load ptr, ptr @admin_dissectors, align 8
  %90 = load ptr, ptr %16, align 8
  %91 = call ptr @dissector_get_custom_table_handle(ptr noundef %89, ptr noundef %90)
  store ptr %91, ptr %18, align 8
  %92 = load ptr, ptr %16, align 8
  %93 = load ptr, ptr %18, align 8
  %94 = load ptr, ptr %17, align 8
  %95 = load ptr, ptr %11, align 8
  call void @label_type_field(ptr noundef %92, ptr noundef %93, ptr noundef %94, ptr noundef %95)
  %96 = load ptr, ptr %16, align 8
  %97 = load i64, ptr %96, align 8
  %98 = icmp uge i64 %97, 65536
  %99 = zext i1 %98 to i8
  store i8 %99, ptr %19, align 1
  br label %100

100:                                              ; preds = %88, %65
  call void @llvm.lifetime.start.p0(i64 8, ptr %20) #18
  %101 = load ptr, ptr %5, align 8
  %102 = load i32, ptr %12, align 4
  %103 = call ptr @tvb_new_subset_remaining(ptr noundef %101, i32 noundef %102)
  store ptr %103, ptr %20, align 8
  call void @llvm.lifetime.start.p0(i64 4, ptr %21) #18
  %104 = load ptr, ptr %18, align 8
  %105 = load ptr, ptr %9, align 8
  %106 = load ptr, ptr %20, align 8
  %107 = load ptr, ptr %6, align 8
  %108 = load ptr, ptr %14, align 8
  %109 = load i8, ptr %19, align 1, !range !11, !noundef !12
  %110 = trunc i8 %109 to i1
  %111 = call i32 @dissect_carried_data(ptr noundef %104, ptr noundef %105, ptr noundef %106, ptr noundef %107, ptr noundef %108, i1 noundef zeroext %110)
  store i32 %111, ptr %21, align 4
  %112 = load i32, ptr %21, align 4
  %113 = load i32, ptr %12, align 4
  %114 = add i32 %113, %112
  store i32 %114, ptr %12, align 4
  call void @llvm.lifetime.end.p0(i64 4, ptr %21) #18
  call void @llvm.lifetime.end.p0(i64 8, ptr %20) #18
  call void @llvm.lifetime.end.p0(i64 1, ptr %19) #18
  call void @llvm.lifetime.end.p0(i64 8, ptr %18) #18
  call void @llvm.lifetime.end.p0(i64 8, ptr %17) #18
  call void @llvm.lifetime.end.p0(i64 8, ptr %16) #18
  call void @llvm.lifetime.end.p0(i64 8, ptr %15) #18
  call void @llvm.lifetime.end.p0(i64 8, ptr %14) #18
  br label %115

115:                                              ; preds = %100, %43
  %116 = load ptr, ptr %11, align 8
  %117 = load i32, ptr %12, align 4
  call void @proto_item_set_len(ptr noundef %116, i32 noundef %117)
  %118 = load i32, ptr %12, align 4
  call void @llvm.lifetime.end.p0(i64 8, ptr %13) #18
  call void @llvm.lifetime.end.p0(i64 4, ptr %12) #18
  call void @llvm.lifetime.end.p0(i64 8, ptr %11) #18
  call void @llvm.lifetime.end.p0(i64 8, ptr %9) #18
  ret i32 %118
}