; Function Attrs: null_pointer_is_valid sspstrong uwtable
define internal i32 @dissect_payload_admin(ptr noundef %0, ptr noundef %1, ptr noundef %2, ptr noundef %3) #2 {
  %5 = alloca i32, align 4
  %.not = icmp eq ptr %3, null
  br i1 %.not, label %6, label %7

6:                                                ; preds = %4
  tail call void (ptr, ...) @proto_report_dissector_bug(ptr noundef nonnull @.str, ptr noundef nonnull @.str.1, i32 noundef 1896, ptr noundef nonnull @.str.347) #17
  unreachable

7:                                                ; preds = %4
  %8 = getelementptr inbounds nuw i8, ptr %1, i64 8
  %9 = load ptr, ptr %8, align 8
  %10 = tail call ptr @col_get_text(ptr noundef %9, i32 noundef 35)
  %11 = tail call i32 @g_strcmp0(ptr noundef %10, ptr noundef nonnull @.str.33)
  %.not45 = icmp eq i32 %11, 0
  br i1 %.not45, label %15, label %12

12:                                               ; preds = %7
  %13 = load ptr, ptr %8, align 8
  tail call void @col_set_str(ptr noundef %13, i32 noundef 35, ptr noundef nonnull @.str.33)
  %14 = load ptr, ptr %8, align 8
  tail call void @col_clear(ptr noundef %14, i32 noundef 25)
  br label %15

15:                                               ; preds = %12, %7
  %16 = load i32, ptr @proto_bp_admin, align 4
  %17 = tail call ptr @proto_tree_add_item(ptr noundef %2, i32 noundef %16, ptr noundef %0, i32 noundef 0, i32 noundef -1, i32 noundef 0)
  call void @llvm.lifetime.start.p0(i64 4, ptr nonnull %5) #19
  store i32 0, ptr %5, align 4
  %18 = getelementptr inbounds nuw i8, ptr %1, i64 408
  %19 = load ptr, ptr %18, align 8
  %20 = call ptr @wscbor_chunk_read(ptr noundef %19, ptr noundef %0, ptr noundef nonnull %5)
  %21 = call zeroext i1 @wscbor_require_array_size(ptr noundef %20, i64 noundef 1, i64 noundef 2)
  %22 = call i64 @wscbor_chunk_mark_errors(ptr noundef %1, ptr noundef %17, ptr noundef %20)
  %23 = load ptr, ptr %18, align 8
  %24 = call zeroext i1 @wscbor_skip_if_errors(ptr noundef %23, ptr noundef %0, ptr noundef nonnull %5, ptr noundef %20)
  br i1 %24, label %._crit_edge, label %25

._crit_edge:                                      ; preds = %15
  %.pre = load i32, ptr %5, align 4
  br label %52

25:                                               ; preds = %15
  %26 = load i32, ptr @ett_admin, align 4
  %27 = call ptr @proto_item_add_subtree(ptr noundef %17, i32 noundef %26)
  %28 = load ptr, ptr %18, align 8
  %29 = call ptr @wscbor_chunk_read(ptr noundef %28, ptr noundef %0, ptr noundef nonnull %5)
  %30 = load ptr, ptr %18, align 8
  %31 = call ptr @wscbor_require_uint64(ptr noundef %30, ptr noundef %29)
  %32 = load i32, ptr @hf_admin_record_type, align 4
  %33 = call ptr @proto_tree_add_cbor_uint64(ptr noundef %27, i32 noundef %32, ptr noundef %1, ptr noundef %0, ptr noundef %29, ptr noundef %31)
  %.not46 = icmp eq ptr %31, null
  br i1 %.not46, label %46, label %34

34:                                               ; preds = %25
  %35 = load ptr, ptr @admin_dissectors, align 8
  %36 = call ptr @dissector_get_custom_table_handle(ptr noundef %35, ptr noundef nonnull %31)
  %.not.i = icmp eq ptr %33, null
  br i1 %.not.i, label %label_type_field.exit, label %37

37:                                               ; preds = %34
  %38 = call ptr @dissector_handle_get_description(ptr noundef %36)
  %.not14.i = icmp eq ptr %38, null
  %spec.store.select.i = select i1 %.not14.i, ptr @.str.49, ptr %38
  %39 = getelementptr inbounds nuw i8, ptr %33, i64 32
  %40 = load ptr, ptr %39, align 8
  %41 = load ptr, ptr %40, align 8
  %42 = load i64, ptr %31, align 8
  call void (ptr, ptr, ...) @proto_item_set_text(ptr noundef nonnull %33, ptr noundef nonnull @.str.50, ptr noundef %41, ptr noundef nonnull %spec.store.select.i, i64 noundef %42)
  %.not15.i = icmp eq ptr %17, null
  br i1 %.not15.i, label %label_type_field.exit, label %43

43:                                               ; preds = %37
  call void (ptr, ptr, ...) @proto_item_append_text(ptr noundef nonnull %17, ptr noundef nonnull @.str.5, ptr noundef nonnull %spec.store.select.i)
  br label %label_type_field.exit

label_type_field.exit:                            ; preds = %34, %37, %43
  %44 = load i64, ptr %31, align 8
  %45 = icmp ugt i64 %44, 65535
  br label %46

46:                                               ; preds = %label_type_field.exit, %25
  %.042 = phi i1 [ %45, %label_type_field.exit ], [ false, %25 ]
  %.0 = phi ptr [ %36, %label_type_field.exit ], [ null, %25 ]
  %47 = load i32, ptr %5, align 4
  %48 = call ptr @tvb_new_subset_remaining(ptr noundef %0, i32 noundef %47)
  %49 = call fastcc i32 @dissect_carried_data(ptr noundef %.0, ptr noundef nonnull %3, ptr noundef %48, ptr noundef %1, ptr noundef %27, i1 noundef zeroext %.042)
  %50 = load i32, ptr %5, align 4
  %51 = add i32 %50, %49
  store i32 %51, ptr %5, align 4
  br label %52

52:                                               ; preds = %._crit_edge, %46
  %53 = phi i32 [ %.pre, %._crit_edge ], [ %51, %46 ]
  call void @proto_item_set_len(ptr noundef %17, i32 noundef %53)
  %54 = load i32, ptr %5, align 4
  call void @llvm.lifetime.end.p0(i64 4, ptr nonnull %5) #19
  ret i32 %54
}